target datalayout = "e-m:e-p270:32:32-p271:32:32-p272:64:64-i64:64-i128:128-f80:128-n8:16:32:64-S128"
target triple = "x86_64-pc-linux-gnu"

%"class.osgeo::proj::CPLJSonStreamingWriter" = type <{ %"class.std::__cxx11::basic_string", ptr, ptr, i8, [7 x i8], %"class.std::__cxx11::basic_string", %"class.std::__cxx11::basic_string", i32, i8, [3 x i8], %"class.std::vector", i8, [7 x i8] }>
%"class.std::__cxx11::basic_string" = type { %"struct.std::__cxx11::basic_string<char>::_Alloc_hider", i64, %union.anon }
%"struct.std::__cxx11::basic_string<char>::_Alloc_hider" = type { ptr }
%union.anon = type { i64, [8 x i8] }
%"class.std::vector" = type { %"struct.std::_Vector_base" }
%"struct.std::_Vector_base" = type { %"struct.std::_Vector_base<osgeo::proj::CPLJSonStreamingWriter::State, std::allocator<osgeo::proj::CPLJSonStreamingWriter::State>>::_Vector_impl" }
%"struct.std::_Vector_base<osgeo::proj::CPLJSonStreamingWriter::State, std::allocator<osgeo::proj::CPLJSonStreamingWriter::State>>::_Vector_impl" = type { %"struct.std::_Vector_base<osgeo::proj::CPLJSonStreamingWriter::State, std::allocator<osgeo::proj::CPLJSonStreamingWriter::State>>::_Vector_impl_data" }
%"struct.std::_Vector_base<osgeo::proj::CPLJSonStreamingWriter::State, std::allocator<osgeo::proj::CPLJSonStreamingWriter::State>>::_Vector_impl_data" = type { ptr, ptr, ptr }

; Function Attrs: mustprogress uwtable
define hidden void @_ZN5osgeo4proj22CPLJSonStreamingWriter5PrintERKNSt7__cxx1112basic_stringIcSt11char_traitsIcESaIcEEE(ptr noundef nonnull align 8 dereferenceable(153) %0, ptr noundef nonnull align 8 dereferenceable(32) %1) #0 align 2 {
  %3 = alloca ptr, align 8
  %4 = alloca ptr, align 8
  store ptr %0, ptr %3, align 8
  store ptr %1, ptr %4, align 8
  %5 = load ptr, ptr %3, align 8
  %6 = getelementptr inbounds %"class.osgeo::proj::CPLJSonStreamingWriter", ptr %5, i32 0, i32 1
  %7 = load ptr, ptr %6, align 8
  %8 = icmp ne ptr %7, null
  br i1 %8, label %9, label %16

9:                                                ; preds = %2
  %10 = getelementptr inbounds %"class.osgeo::proj::CPLJSonStreamingWriter", ptr %5, i32 0, i32 1
  %11 = load ptr, ptr %10, align 8
  %12 = load ptr, ptr %4, align 8
  %13 = call noundef ptr @_ZNKSt7__cxx1112basic_stringIcSt11char_traitsIcESaIcEE5c_strEv(ptr noundef nonnull align 8 dereferenceable(32) %12) #13
  %14 = getelementptr inbounds %"class.osgeo::proj::CPLJSonStreamingWriter", ptr %5, i32 0, i32 2
  %15 = load ptr, ptr %14, align 8
  call void %11(ptr noundef %13, ptr noundef %15)
  br label %20

16:                                               ; preds = %2
  %17 = load ptr, ptr %4, align 8
  %18 = getelementptr inbounds %"class.osgeo::proj::CPLJSonStreamingWriter", ptr %5, i32 0, i32 0
  %19 = call noundef nonnull align 8 dereferenceable(32) ptr @_ZNSt7__cxx1112basic_stringIcSt11char_traitsIcESaIcEEpLERKS4_(ptr noundef nonnull align 8 dereferenceable(32) %18, ptr noundef nonnull align 8 dereferenceable(32) %17)
  br label %20

20:                                               ; preds = %16, %9
  ret void
}